; ModuleID = '35/761.c'
source_filename = "35/761.c"
target datalayout = "e-m:e-p270:32:32-p271:32:32-p272:64:64-i64:64-f80:128-n8:16:32:64-S128"
target triple = "x86_64-pc-linux-gnu"

@.str = private unnamed_addr constant [6 x i8] c"%d,%d\00", align 1
@.str.1 = private unnamed_addr constant [3 x i8] c"%d\00", align 1
@.str.2 = private unnamed_addr constant [6 x i8] c"%d+%d\00", align 1
@.str.3 = private unnamed_addr constant [3 x i8] c"No\00", align 1

; Function Attrs: noinline nounwind uwtable
define dso_local i32 @main() #0 {
  %1 = alloca i32, align 4
  %2 = alloca i32, align 4
  %3 = alloca i32, align 4
  %4 = alloca i32, align 4
  %5 = alloca i32, align 4
  %6 = alloca i32, align 4
  %7 = alloca [100 x [100 x i32]], align 16
  %8 = alloca i32, align 4
  %9 = alloca i32, align 4
  %10 = alloca i32, align 4
  %11 = alloca i32, align 4
  store i32 0, i32* %1, align 4
  store i32 0, i32* %6, align 4
  %12 = call i32 (i8*, ...) @__isoc99_scanf(i8* getelementptr inbounds ([6 x i8], [6 x i8]* @.str, i64 0, i64 0), i32* %2, i32* %3)
  store i32 0, i32* %4, align 4
  br label %13

13:                                               ; preds = %34, %0
  %14 = load i32, i32* %4, align 4
  %15 = load i32, i32* %2, align 4
  %16 = icmp slt i32 %14, %15
  br i1 %16, label %17, label %37

17:                                               ; preds = %13
  store i32 0, i32* %5, align 4
  br label %18

18:                                               ; preds = %30, %17
  %19 = load i32, i32* %5, align 4
  %20 = load i32, i32* %3, align 4
  %21 = icmp slt i32 %19, %20
  br i1 %21, label %22, label %33

22:                                               ; preds = %18
  %23 = load i32, i32* %4, align 4
  %24 = sext i32 %23 to i64
  %25 = getelementptr inbounds [100 x [100 x i32]], [100 x [100 x i32]]* %7, i64 0, i64 %24
  %26 = load i32, i32* %5, align 4
  %27 = sext i32 %26 to i64
  %28 = getelementptr inbounds [100 x i32], [100 x i32]* %25, i64 0, i64 %27
  %29 = call i32 (i8*, ...) @__isoc99_scanf(i8* getelementptr inbounds ([3 x i8], [3 x i8]* @.str.1, i64 0, i64 0), i32* %28)
  br label %30

30:                                               ; preds = %22
  %31 = load i32, i32* %5, align 4
  %32 = add nsw i32 %31, 1
  store i32 %32, i32* %5, align 4
  br label %18

33:                                               ; preds = %18
  br label %34

34:                                               ; preds = %33
  %35 = load i32, i32* %4, align 4
  %36 = add nsw i32 %35, 1
  store i32 %36, i32* %4, align 4
  br label %13

37:                                               ; preds = %13
  store i32 0, i32* %4, align 4
  br label %38

38:                                               ; preds = %116, %37
  %39 = load i32, i32* %4, align 4
  %40 = load i32, i32* %2, align 4
  %41 = icmp slt i32 %39, %40
  br i1 %41, label %42, label %119

42:                                               ; preds = %38
  %43 = load i32, i32* %4, align 4
  %44 = sext i32 %43 to i64
  %45 = getelementptr inbounds [100 x [100 x i32]], [100 x [100 x i32]]* %7, i64 0, i64 %44
  %46 = getelementptr inbounds [100 x i32], [100 x i32]* %45, i64 0, i64 0
  %47 = load i32, i32* %46, align 16
  store i32 %47, i32* %8, align 4
  store i32 0, i32* %9, align 4
  store i32 1, i32* %5, align 4
  br label %48

48:                                               ; preds = %72, %42
  %49 = load i32, i32* %5, align 4
  %50 = load i32, i32* %3, align 4
  %51 = icmp slt i32 %49, %50
  br i1 %51, label %52, label %75

52:                                               ; preds = %48
  %53 = load i32, i32* %4, align 4
  %54 = sext i32 %53 to i64
  %55 = getelementptr inbounds [100 x [100 x i32]], [100 x [100 x i32]]* %7, i64 0, i64 %54
  %56 = load i32, i32* %5, align 4
  %57 = sext i32 %56 to i64
  %58 = getelementptr inbounds [100 x i32], [100 x i32]* %55, i64 0, i64 %57
  %59 = load i32, i32* %58, align 4
  %60 = load i32, i32* %8, align 4
  %61 = icmp sgt i32 %59, %60
  br i1 %61, label %62, label %71

62:                                               ; preds = %52
  %63 = load i32, i32* %4, align 4
  %64 = sext i32 %63 to i64
  %65 = getelementptr inbounds [100 x [100 x i32]], [100 x [100 x i32]]* %7, i64 0, i64 %64
  %66 = load i32, i32* %5, align 4
  %67 = sext i32 %66 to i64
  %68 = getelementptr inbounds [100 x i32], [100 x i32]* %65, i64 0, i64 %67
  %69 = load i32, i32* %68, align 4
  store i32 %69, i32* %8, align 4
  %70 = load i32, i32* %5, align 4
  store i32 %70, i32* %9, align 4
  br label %71

71:                                               ; preds = %62, %52
  br label %72

72:                                               ; preds = %71
  %73 = load i32, i32* %5, align 4
  %74 = add nsw i32 %73, 1
  store i32 %74, i32* %5, align 4
  br label %48

75:                                               ; preds = %48
  %76 = getelementptr inbounds [100 x [100 x i32]], [100 x [100 x i32]]* %7, i64 0, i64 0
  %77 = load i32, i32* %9, align 4
  %78 = sext i32 %77 to i64
  %79 = getelementptr inbounds [100 x i32], [100 x i32]* %76, i64 0, i64 %78
  %80 = load i32, i32* %79, align 4
  store i32 %80, i32* %10, align 4
  store i32 1, i32* %11, align 4
  br label %81

81:                                               ; preds = %104, %75
  %82 = load i32, i32* %11, align 4
  %83 = load i32, i32* %2, align 4
  %84 = icmp slt i32 %82, %83
  br i1 %84, label %85, label %107

85:                                               ; preds = %81
  %86 = load i32, i32* %11, align 4
  %87 = sext i32 %86 to i64
  %88 = getelementptr inbounds [100 x [100 x i32]], [100 x [100 x i32]]* %7, i64 0, i64 %87
  %89 = load i32, i32* %9, align 4
  %90 = sext i32 %89 to i64
  %91 = getelementptr inbounds [100 x i32], [100 x i32]* %88, i64 0, i64 %90
  %92 = load i32, i32* %91, align 4
  %93 = load i32, i32* %10, align 4
  %94 = icmp slt i32 %92, %93
  br i1 %94, label %95, label %103

95:                                               ; preds = %85
  %96 = load i32, i32* %11, align 4
  %97 = sext i32 %96 to i64
  %98 = getelementptr inbounds [100 x [100 x i32]], [100 x [100 x i32]]* %7, i64 0, i64 %97
  %99 = load i32, i32* %9, align 4
  %100 = sext i32 %99 to i64
  %101 = getelementptr inbounds [100 x i32], [100 x i32]* %98, i64 0, i64 %100
  %102 = load i32, i32* %101, align 4
  store i32 %102, i32* %10, align 4
  br label %103

103:                                              ; preds = %95, %85
  br label %104

104:                                              ; preds = %103
  %105 = load i32, i32* %11, align 4
  %106 = add nsw i32 %105, 1
  store i32 %106, i32* %11, align 4
  br label %81

107:                                              ; preds = %81
  %108 = load i32, i32* %8, align 4
  %109 = load i32, i32* %10, align 4
  %110 = icmp eq i32 %108, %109
  br i1 %110, label %111, label %115

111:                                              ; preds = %107
  %112 = load i32, i32* %4, align 4
  %113 = load i32, i32* %9, align 4
  %114 = call i32 (i8*, ...) @printf(i8* getelementptr inbounds ([6 x i8], [6 x i8]* @.str.2, i64 0, i64 0), i32 %112, i32 %113)
  store i32 1, i32* %6, align 4
  br label %115

115:                                              ; preds = %111, %107
  br label %116

116:                                              ; preds = %115
  %117 = load i32, i32* %4, align 4
  %118 = add nsw i32 %117, 1
  store i32 %118, i32* %4, align 4
  br label %38

119:                                              ; preds = %38
  %120 = load i32, i32* %6, align 4
  %121 = icmp eq i32 %120, 0
  br i1 %121, label %122, label %124

122:                                              ; preds = %119
  %123 = call i32 (i8*, ...) @printf(i8* getelementptr inbounds ([3 x i8], [3 x i8]* @.str.3, i64 0, i64 0))
  br label %124

124:                                              ; preds = %122, %119
  ret i32 0
}

declare dso_local i32 @__isoc99_scanf(i8*, ...) #1

declare dso_local i32 @printf(i8*, ...) #1


!llvm.module.flags = !{!0}
!llvm.ident = !{!1}

!0 = !{i32 1, !"wchar_size", i32 4}
!1 = !{!"clang version 10.0.0-4ubuntu1 "}
